target datalayout = "e-m:e-p270:32:32-p271:32:32-p272:64:64-i64:64-i128:128-f80:128-n8:16:32:64-S128"
target triple = "x86_64-pc-linux-gnu"

%struct.rb_data_type_struct = type { ptr, %struct.anon, ptr, ptr, i64 }
%struct.anon = type { ptr, ptr, ptr, ptr, [1 x ptr] }

@ossl_sslctx_type = internal constant %struct.rb_data_type_struct { ptr @.str.186, %struct.anon { ptr @ossl_sslctx_mark, ptr @ossl_sslctx_free, ptr null, ptr null, [1 x ptr] zeroinitializer }, ptr null, ptr null, i64 33 }, align 8

; Function Attrs: inlinehint nounwind sspstrong uwtable
define internal ptr @ossl_check_const_SSL_CIPHER_sk_type(ptr noundef %0) #4 {
  %2 = alloca ptr, align 8
  store ptr %0, ptr %2, align 8, !tbaa !24
  %3 = load ptr, ptr %2, align 8, !tbaa !24
  ret ptr %3
}

; Function Attrs: nounwind sspstrong uwtable
define internal i64 @ossl_sslctx_get_ciphers(i64 noundef %0) #0 {
  %2 = alloca i64, align 8
  %3 = alloca i64, align 8
  %4 = alloca ptr, align 8
  %5 = alloca ptr, align 8
  %6 = alloca ptr, align 8
  %7 = alloca i64, align 8
  %8 = alloca i32, align 4
  %9 = alloca i32, align 4
  %10 = alloca i32, align 4
  store i64 %0, ptr %3, align 8, !tbaa !14
  call void @llvm.lifetime.start.p0(i64 8, ptr %4) #20
  call void @llvm.lifetime.start.p0(i64 8, ptr %5) #20
  call void @llvm.lifetime.start.p0(i64 8, ptr %6) #20
  call void @llvm.lifetime.start.p0(i64 8, ptr %7) #20
  call void @llvm.lifetime.start.p0(i64 4, ptr %8) #20
  call void @llvm.lifetime.start.p0(i64 4, ptr %9) #20
  br label %11

11:                                               ; preds = %1
  %12 = load i64, ptr %3, align 8, !tbaa !14
  %13 = call ptr @rb_check_typeddata(i64 noundef %12, ptr noundef @ossl_sslctx_type)
  store ptr %13, ptr %4, align 8, !tbaa !18
  br label %14

14:                                               ; preds = %11
  br label %15

15:                                               ; preds = %14
  %16 = load ptr, ptr %4, align 8, !tbaa !18
  %17 = call ptr @SSL_CTX_get_ciphers(ptr noundef %16)
  store ptr %17, ptr %5, align 8, !tbaa !24
  %18 = load ptr, ptr %5, align 8, !tbaa !24
  %19 = icmp ne ptr %18, null
  br i1 %19, label %22, label %20

20:                                               ; preds = %15
  %21 = call i64 @rb_ary_new()
  store i64 %21, ptr %2, align 8
  store i32 1, ptr %10, align 4
  br label %47

22:                                               ; preds = %15
  %23 = load ptr, ptr %5, align 8, !tbaa !24
  %24 = call ptr @ossl_check_const_SSL_CIPHER_sk_type(ptr noundef %23)
  %25 = call i32 @OPENSSL_sk_num(ptr noundef %24)
  store i32 %25, ptr %9, align 4, !tbaa !12
  %26 = load i32, ptr %9, align 4, !tbaa !12
  %27 = sext i32 %26 to i64
  %28 = call i64 @rb_ary_new_capa(i64 noundef %27)
  store i64 %28, ptr %7, align 8, !tbaa !14
  store i32 0, ptr %8, align 4, !tbaa !12
  br label %29

29:                                               ; preds = %42, %22
  %30 = load i32, ptr %8, align 4, !tbaa !12
  %31 = load i32, ptr %9, align 4, !tbaa !12
  %32 = icmp slt i32 %30, %31
  br i1 %32, label %33, label %45

33:                                               ; preds = %29
  %34 = load ptr, ptr %5, align 8, !tbaa !24
  %35 = call ptr @ossl_check_const_SSL_CIPHER_sk_type(ptr noundef %34)
  %36 = load i32, ptr %8, align 4, !tbaa !12
  %37 = call ptr @OPENSSL_sk_value(ptr noundef %35, i32 noundef %36)
  store ptr %37, ptr %6, align 8, !tbaa !26
  %38 = load i64, ptr %7, align 8, !tbaa !14
  %39 = load ptr, ptr %6, align 8, !tbaa !26
  %40 = call i64 @ossl_ssl_cipher_to_ary(ptr noundef %39)
  %41 = call i64 @rb_ary_push(i64 noundef %38, i64 noundef %40)
  br label %42

42:                                               ; preds = %33
  %43 = load i32, ptr %8, align 4, !tbaa !12
  %44 = add nsw i32 %43, 1
  store i32 %44, ptr %8, align 4, !tbaa !12
  br label %29, !llvm.loop !28

45:                                               ; preds = %29
  %46 = load i64, ptr %7, align 8, !tbaa !14
  store i64 %46, ptr %2, align 8
  store i32 1, ptr %10, align 4
  br label %47

47:                                               ; preds = %45, %20
  call void @llvm.lifetime.end.p0(i64 4, ptr %9) #20
  call void @llvm.lifetime.end.p0(i64 4, ptr %8) #20
  call void @llvm.lifetime.end.p0(i64 8, ptr %7) #20
  call void @llvm.lifetime.end.p0(i64 8, ptr %6) #20
  call void @llvm.lifetime.end.p0(i64 8, ptr %5) #20
  call void @llvm.lifetime.end.p0(i64 8, ptr %4) #20
  %48 = load i64, ptr %2, align 8
  ret i64 %48
}