; Function Attrs: nounwind sspstrong uwtable
define internal i64 @ossl_sslctx_get_ciphers(i64 noundef %0) #0 {
  %2 = tail call ptr @rb_check_typeddata(i64 noundef %0, ptr noundef nonnull @ossl_sslctx_type) #9
  %3 = tail call ptr @SSL_CTX_get_ciphers(ptr noundef %2) #9
  %.not = icmp eq ptr %3, null
  br i1 %.not, label %4, label %6

4:                                                ; preds = %1
  %5 = tail call i64 @rb_ary_new() #9
  br label %.loopexit

6:                                                ; preds = %1
  %7 = tail call i32 @OPENSSL_sk_num(ptr noundef nonnull %3) #9
  %8 = sext i32 %7 to i64
  %9 = tail call i64 @rb_ary_new_capa(i64 noundef %8) #9
  %10 = icmp sgt i32 %7, 0
  br i1 %10, label %.lr.ph, label %.loopexit

.lr.ph:                                           ; preds = %6, %.lr.ph
  %.01315 = phi i32 [ %14, %.lr.ph ], [ 0, %6 ]
  %11 = tail call ptr @OPENSSL_sk_value(ptr noundef nonnull %3, i32 noundef %.01315) #9
  %12 = tail call fastcc i64 @ossl_ssl_cipher_to_ary(ptr noundef %11)
  %13 = tail call i64 @rb_ary_push(i64 noundef %9, i64 noundef %12) #9
  %14 = add nuw nsw i32 %.01315, 1
  %exitcond.not = icmp eq i32 %14, %7
  br i1 %exitcond.not, label %.loopexit, label %.lr.ph, !llvm.loop !21

.loopexit:                                        ; preds = %.lr.ph, %6, %4
  %.0 = phi i64 [ %5, %4 ], [ %9, %6 ], [ %9, %.lr.ph ]
  ret i64 %.0
}